; Function Attrs: mustprogress uwtable
define void @_ZNK8QuantLib24LiborForwardModelProcess9diffusionEdRKNS_5ArrayE(ptr dead_on_unwind noalias writable sret(%"class.QuantLib::Matrix") align 8 %agg.result, ptr nocapture noundef nonnull readonly align 8 dereferenceable(336) %this, double noundef %t, ptr noundef nonnull align 8 dereferenceable(16) %x) unnamed_addr #6 align 2 {
entry:
  %lfmParam_ = getelementptr inbounds nuw i8, ptr %this, i64 152
  %0 = load ptr, ptr %lfmParam_, align 8, !tbaa !141
  %cmp.not.i = icmp eq ptr %0, null
  br i1 %cmp.not.i, label %cond.false.i, label %_ZNK5boost10shared_ptrIN8QuantLib29LfmCovarianceParameterizationEEptEv.exit, !prof !81

cond.false.i:                                     ; preds = %entry
  tail call void @_ZN5boost16assertion_failedEPKcS1_S1_l(ptr noundef nonnull @.str.12, ptr noundef nonnull @__PRETTY_FUNCTION__._ZNK5boost10shared_ptrIN8QuantLib29LfmCovarianceParameterizationEEptEv, ptr noundef nonnull @.str.13, i64 noundef 784)
  %.pre.i = load ptr, ptr %lfmParam_, align 8, !tbaa !141
  br label %_ZNK5boost10shared_ptrIN8QuantLib29LfmCovarianceParameterizationEEptEv.exit

_ZNK5boost10shared_ptrIN8QuantLib29LfmCovarianceParameterizationEEptEv.exit: ; preds = %entry, %cond.false.i
  %1 = phi ptr [ %0, %entry ], [ %.pre.i, %cond.false.i ]
  %vtable = load ptr, ptr %1, align 8, !tbaa !35
  %vfn = getelementptr inbounds i8, ptr %vtable, i64 16
  %2 = load ptr, ptr %vfn, align 8
  tail call void %2(ptr dead_on_unwind writable sret(%"class.QuantLib::Matrix") align 8 %agg.result, ptr noundef nonnull align 8 dereferenceable(24) %1, double noundef %t, ptr noundef nonnull align 8 dereferenceable(16) %x)
  ret void
}